; Function Attrs: mustprogress uwtable
define noundef i32 @_ZN6icu_7525FCDUTF16CollationIterator17previousCodePointER10UErrorCode(ptr noundef nonnull align 8 dereferenceable(521) %this, ptr noundef nonnull align 4 dereferenceable(4) %errorCode) unnamed_addr #1 align 2 {
entry:
  %checkDir = getelementptr inbounds i8, ptr %this, i64 520
  %checkDir.promoted = load i8, ptr %checkDir, align 8
  %cmp31 = icmp slt i8 %checkDir.promoted, 0
  %pos.phi.trans.insert = getelementptr inbounds i8, ptr %this, i64 400
  br i1 %cmp31, label %entry.if.then_crit_edge, label %if.else.lr.ph

entry.if.then_crit_edge:                          ; preds = %entry
  %.pre = load ptr, ptr %pos.phi.trans.insert, align 8
  %start.phi.trans.insert = getelementptr inbounds i8, ptr %this, i64 392
  %.pre34 = load ptr, ptr %start.phi.trans.insert, align 8
  br label %if.then

if.else.lr.ph:                                    ; preds = %entry
  %segmentLimit.i = getelementptr inbounds i8, ptr %this, i64 432
  %limit.i = getelementptr inbounds i8, ptr %this, i64 408
  %segmentStart.i = getelementptr inbounds i8, ptr %this, i64 424
  %0 = load ptr, ptr %segmentStart.i, align 8
  %rawStart.i = getelementptr inbounds i8, ptr %this, i64 416
  %1 = load ptr, ptr %rawStart.i, align 8
  %start.i = getelementptr inbounds i8, ptr %this, i64 392
  %pos.i.promoted = load ptr, ptr %pos.phi.trans.insert, align 8
  %start.i.promoted = load ptr, ptr %start.i, align 8
  %2 = icmp eq i8 %checkDir.promoted, 0
  br i1 %2, label %land.lhs.true31, label %if.then.i

if.then:                                          ; preds = %_ZN6icu_7525FCDUTF16CollationIterator16switchToBackwardEv.exit.thread, %entry.if.then_crit_edge
  %3 = phi ptr [ %.pre34, %entry.if.then_crit_edge ], [ %1, %_ZN6icu_7525FCDUTF16CollationIterator16switchToBackwardEv.exit.thread ]
  %4 = phi ptr [ %.pre, %entry.if.then_crit_edge ], [ %.ph, %_ZN6icu_7525FCDUTF16CollationIterator16switchToBackwardEv.exit.thread ]
  %pos = getelementptr inbounds i8, ptr %this, i64 400
  %cmp2 = icmp eq ptr %4, %3
  br i1 %cmp2, label %return, label %if.end

if.end:                                           ; preds = %if.then
  %incdec.ptr = getelementptr inbounds i8, ptr %4, i64 -2
  store ptr %incdec.ptr, ptr %pos, align 8
  %5 = load i16, ptr %incdec.ptr, align 2
  %conv5 = zext i16 %5 to i32
  %cmp.i = icmp ugt i16 %5, 767
  br i1 %cmp.i, label %land.lhs.true.i, label %for.end

land.lhs.true.i:                                  ; preds = %if.end
  %shr.i = lshr i32 %conv5, 5
  %idxprom.i = zext nneg i32 %shr.i to i64
  %arrayidx.i = getelementptr inbounds [2048 x i8], ptr @_ZN6icu_7512CollationFCD9lcccIndexE, i64 0, i64 %idxprom.i
  %6 = load i8, ptr %arrayidx.i, align 1
  %cmp1.not.i = icmp eq i8 %6, 0
  br i1 %cmp1.not.i, label %for.end, label %_ZN6icu_7512CollationFCD7hasLcccEi.exit

_ZN6icu_7512CollationFCD7hasLcccEi.exit:          ; preds = %land.lhs.true.i
  %idxprom2.i = zext i8 %6 to i64
  %arrayidx3.i = getelementptr inbounds [0 x i32], ptr @_ZN6icu_7512CollationFCD8lcccBitsE, i64 0, i64 %idxprom2.i
  %7 = load i32, ptr %arrayidx3.i, align 4
  %and.i = and i32 %conv5, 31
  %shl.i = shl nuw i32 1, %and.i
  %and4.i = and i32 %7, %shl.i
  %cmp5.i.not = icmp eq i32 %and4.i, 0
  br i1 %cmp5.i.not, label %for.end, label %if.then6

if.then6:                                         ; preds = %_ZN6icu_7512CollationFCD7hasLcccEi.exit
  %and.i8 = and i32 %conv5, 65281
  %cmp.i9.not = icmp eq i32 %and.i8, 3841
  br i1 %cmp.i9.not, label %if.then16, label %lor.lhs.false

lor.lhs.false:                                    ; preds = %if.then6
  %cmp11.not = icmp eq ptr %incdec.ptr, %3
  br i1 %cmp11.not, label %for.end, label %land.lhs.true

land.lhs.true:                                    ; preds = %lor.lhs.false
  %add.ptr = getelementptr inbounds i8, ptr %4, i64 -4
  %8 = load i16, ptr %add.ptr, align 2
  %conv13 = zext i16 %8 to i32
  %cmp.i10 = icmp ugt i16 %8, 191
  br i1 %cmp.i10, label %land.lhs.true.i12, label %for.end

land.lhs.true.i12:                                ; preds = %land.lhs.true
  %shr.i13 = lshr i32 %conv13, 5
  %idxprom.i14 = zext nneg i32 %shr.i13 to i64
  %arrayidx.i15 = getelementptr inbounds [2048 x i8], ptr @_ZN6icu_7512CollationFCD9tcccIndexE, i64 0, i64 %idxprom.i14
  %9 = load i8, ptr %arrayidx.i15, align 1
  %cmp1.not.i16 = icmp eq i8 %9, 0
  br i1 %cmp1.not.i16, label %for.end, label %_ZN6icu_7512CollationFCD7hasTcccEi.exit

_ZN6icu_7512CollationFCD7hasTcccEi.exit:          ; preds = %land.lhs.true.i12
  %idxprom2.i18 = zext i8 %9 to i64
  %arrayidx3.i19 = getelementptr inbounds [0 x i32], ptr @_ZN6icu_7512CollationFCD8tcccBitsE, i64 0, i64 %idxprom2.i18
  %10 = load i32, ptr %arrayidx3.i19, align 4
  %and.i20 = and i32 %conv13, 31
  %shl.i21 = shl nuw i32 1, %and.i20
  %and4.i22 = and i32 %10, %shl.i21
  %cmp5.i23.not = icmp eq i32 %and4.i22, 0
  br i1 %cmp5.i23.not, label %for.end, label %if.then16

if.then16:                                        ; preds = %_ZN6icu_7512CollationFCD7hasTcccEi.exit, %if.then6
  store ptr %4, ptr %pos, align 8
  %call19 = tail call noundef signext i8 @_ZN6icu_7525FCDUTF16CollationIterator15previousSegmentER10UErrorCode(ptr noundef nonnull align 8 dereferenceable(521) %this, ptr noundef nonnull align 4 dereferenceable(4) %errorCode), !range !7
  %tobool20.not = icmp eq i8 %call19, 0
  br i1 %tobool20.not, label %return, label %if.end22

if.end22:                                         ; preds = %if.then16
  %11 = load ptr, ptr %pos, align 8
  %incdec.ptr24 = getelementptr inbounds i8, ptr %11, i64 -2
  store ptr %incdec.ptr24, ptr %pos, align 8
  br label %for.end.sink.split

land.lhs.true31:                                  ; preds = %_ZN6icu_7525FCDUTF16CollationIterator16switchToBackwardEv.exit, %if.else.lr.ph
  %cmp34.not = icmp eq ptr %pos.i.promoted, %start.i.promoted
  br i1 %cmp34.not, label %if.else7.i, label %if.then35

if.then35:                                        ; preds = %land.lhs.true31
  %incdec.ptr37 = getelementptr inbounds i8, ptr %pos.i.promoted, i64 -2
  store ptr %incdec.ptr37, ptr %pos.phi.trans.insert, align 8
  br label %for.end.sink.split

if.then.i:                                        ; preds = %if.else.lr.ph
  %cmp3.i = icmp eq ptr %pos.i.promoted, %0
  store ptr %pos.i.promoted, ptr %segmentLimit.i, align 8
  store ptr %pos.i.promoted, ptr %limit.i, align 8
  br i1 %cmp3.i, label %_ZN6icu_7525FCDUTF16CollationIterator16switchToBackwardEv.exit.thread, label %_ZN6icu_7525FCDUTF16CollationIterator16switchToBackwardEv.exit

if.else7.i:                                       ; preds = %land.lhs.true31
  %cmp10.i = icmp eq ptr %start.i.promoted, %0
  br i1 %cmp10.i, label %_ZN6icu_7525FCDUTF16CollationIterator16switchToBackwardEv.exit.thread, label %if.else12.i

if.else12.i:                                      ; preds = %if.else7.i
  store ptr %0, ptr %segmentLimit.i, align 8
  store ptr %0, ptr %limit.i, align 8
  store ptr %0, ptr %pos.phi.trans.insert, align 8
  br label %_ZN6icu_7525FCDUTF16CollationIterator16switchToBackwardEv.exit.thread

_ZN6icu_7525FCDUTF16CollationIterator16switchToBackwardEv.exit.thread: ; preds = %if.then.i, %if.else7.i, %if.else12.i
  %.ph = phi ptr [ %0, %if.else12.i ], [ %pos.i.promoted, %if.else7.i ], [ %pos.i.promoted, %if.then.i ]
  store ptr %1, ptr %start.i, align 8
  store i8 -1, ptr %checkDir, align 8
  br label %if.then

_ZN6icu_7525FCDUTF16CollationIterator16switchToBackwardEv.exit: ; preds = %if.then.i
  store i8 0, ptr %checkDir, align 8
  br label %land.lhs.true31

for.end.sink.split:                               ; preds = %if.then35, %if.end22
  %incdec.ptr24.sink = phi ptr [ %incdec.ptr24, %if.end22 ], [ %incdec.ptr37, %if.then35 ]
  %12 = load i16, ptr %incdec.ptr24.sink, align 2
  %conv25 = zext i16 %12 to i32
  br label %for.end

for.end:                                          ; preds = %for.end.sink.split, %land.lhs.true, %land.lhs.true.i12, %if.end, %land.lhs.true.i, %_ZN6icu_7512CollationFCD7hasLcccEi.exit, %_ZN6icu_7512CollationFCD7hasTcccEi.exit, %lor.lhs.false
  %13 = phi ptr [ %incdec.ptr, %_ZN6icu_7512CollationFCD7hasTcccEi.exit ], [ %3, %lor.lhs.false ], [ %incdec.ptr, %_ZN6icu_7512CollationFCD7hasLcccEi.exit ], [ %incdec.ptr, %land.lhs.true.i ], [ %incdec.ptr, %if.end ], [ %incdec.ptr, %land.lhs.true.i12 ], [ %incdec.ptr, %land.lhs.true ], [ %incdec.ptr24.sink, %for.end.sink.split ]
  %c.0 = phi i32 [ %conv5, %_ZN6icu_7512CollationFCD7hasTcccEi.exit ], [ %conv5, %lor.lhs.false ], [ %conv5, %_ZN6icu_7512CollationFCD7hasLcccEi.exit ], [ %conv5, %land.lhs.true.i ], [ %conv5, %if.end ], [ %conv5, %land.lhs.true.i12 ], [ %conv5, %land.lhs.true ], [ %conv25, %for.end.sink.split ]
  %and = and i32 %c.0, 64512
  %cmp42 = icmp eq i32 %and, 56320
  br i1 %cmp42, label %land.lhs.true43, label %return

land.lhs.true43:                                  ; preds = %for.end
  %pos44 = getelementptr inbounds i8, ptr %this, i64 400
  %start45 = getelementptr inbounds i8, ptr %this, i64 392
  %14 = load ptr, ptr %start45, align 8
  %cmp46.not = icmp eq ptr %13, %14
  br i1 %cmp46.not, label %return, label %land.lhs.true47

land.lhs.true47:                                  ; preds = %land.lhs.true43
  %add.ptr49 = getelementptr inbounds i8, ptr %13, i64 -2
  %15 = load i16, ptr %add.ptr49, align 2
  %conv50 = zext i16 %15 to i32
  %and51 = and i32 %conv50, 64512
  %cmp52 = icmp eq i32 %and51, 55296
  br i1 %cmp52, label %if.then53, label %return

if.then53:                                        ; preds = %land.lhs.true47
  store ptr %add.ptr49, ptr %pos44, align 8
  %shl = shl nuw nsw i32 %conv50, 10
  %add = add nuw nsw i32 %c.0, -56613888
  %sub = add nsw i32 %add, %shl
  br label %return

return:                                           ; preds = %for.end, %land.lhs.true43, %land.lhs.true47, %if.then16, %if.then, %if.then53
  %retval.0 = phi i32 [ %sub, %if.then53 ], [ -1, %if.then ], [ -1, %if.then16 ], [ %c.0, %land.lhs.true47 ], [ %c.0, %land.lhs.true43 ], [ %c.0, %for.end ]
  ret i32 %retval.0
}